target datalayout = "e-m:e-p270:32:32-p271:32:32-p272:64:64-i64:64-i128:128-f80:128-n8:16:32:64-S128"
target triple = "x86_64-pc-linux-gnu"

%"struct.clang::ASTNodeKind::KindInfo" = type { i32, ptr }
%"class.clang::ASTNodeKind" = type { i32 }

; Function Attrs: mustprogress nounwind uwtable
define linkonce_odr hidden void @_ZN5clang11ASTNodeKindC2ENS0_10NodeKindIdE(ptr noundef nonnull align 4 dereferenceable(4) %0, i32 noundef %1) unnamed_addr #0 comdat align 2 {
  %3 = alloca ptr, align 8
  %4 = alloca i32, align 4
  store ptr %0, ptr %3, align 8
  store i32 %1, ptr %4, align 4
  %5 = load ptr, ptr %3, align 8
  %6 = getelementptr inbounds nuw %"class.clang::ASTNodeKind", ptr %5, i32 0, i32 0
  %7 = load i32, ptr %4, align 4
  store i32 %7, ptr %6, align 4
  ret void
}

; Function Attrs: mustprogress nounwind uwtable
define dso_local noundef zeroext i1 @_ZN5clang11ASTNodeKind8isBaseOfENS0_10NodeKindIdES1_(i32 noundef %0, i32 noundef %1) #0 align 2 {
  %3 = alloca i1, align 1
  %4 = alloca i32, align 4
  %5 = alloca i32, align 4
  store i32 %0, ptr %4, align 4
  store i32 %1, ptr %5, align 4
  %6 = load i32, ptr %4, align 4
  %7 = icmp eq i32 %6, 0
  br i1 %7, label %11, label %8

8:                                                ; preds = %2
  %9 = load i32, ptr %5, align 4
  %10 = icmp eq i32 %9, 0
  br i1 %10, label %11, label %12

11:                                               ; preds = %8, %2
  store i1 false, ptr %3, align 1
  br label %32

12:                                               ; preds = %8
  br label %13

13:                                               ; preds = %22, %12
  %14 = load i32, ptr %5, align 4
  %15 = load i32, ptr %4, align 4
  %16 = icmp ne i32 %14, %15
  br i1 %16, label %17, label %20

17:                                               ; preds = %13
  %18 = load i32, ptr %5, align 4
  %19 = icmp ne i32 %18, 0
  br label %20

20:                                               ; preds = %17, %13
  %21 = phi i1 [ false, %13 ], [ %19, %17 ]
  br i1 %21, label %22, label %28

22:                                               ; preds = %20
  %23 = load i32, ptr %5, align 4
  %24 = zext i32 %23 to i64
  %25 = getelementptr inbounds [1018 x %"struct.clang::ASTNodeKind::KindInfo"], ptr @_ZN5clang11ASTNodeKind11AllKindInfoE, i64 0, i64 %24
  %26 = getelementptr inbounds nuw %"struct.clang::ASTNodeKind::KindInfo", ptr %25, i32 0, i32 0
  %27 = load i32, ptr %26, align 16
  store i32 %27, ptr %5, align 4
  br label %13, !llvm.loop !4

28:                                               ; preds = %20
  %29 = load i32, ptr %5, align 4
  %30 = load i32, ptr %4, align 4
  %31 = icmp eq i32 %29, %30
  store i1 %31, ptr %3, align 1
  br label %32

32:                                               ; preds = %28, %11
  %33 = load i1, ptr %3, align 1
  ret i1 %33
}

; Function Attrs: mustprogress nounwind uwtable
define dso_local i32 @_ZN5clang11ASTNodeKind28getMostDerivedCommonAncestorES0_S0_(i32 %0, i32 %1) #0 align 2 {
  %3 = alloca %"class.clang::ASTNodeKind", align 4
  %4 = alloca %"class.clang::ASTNodeKind", align 4
  %5 = alloca %"class.clang::ASTNodeKind", align 4
  %6 = alloca i32, align 4
  %7 = getelementptr inbounds nuw %"class.clang::ASTNodeKind", ptr %4, i32 0, i32 0
  store i32 %0, ptr %7, align 4
  %8 = getelementptr inbounds nuw %"class.clang::ASTNodeKind", ptr %5, i32 0, i32 0
  store i32 %1, ptr %8, align 4
  %9 = getelementptr inbounds nuw %"class.clang::ASTNodeKind", ptr %4, i32 0, i32 0
  %10 = load i32, ptr %9, align 4
  store i32 %10, ptr %6, align 4
  br label %11

11:                                               ; preds = %21, %2
  %12 = load i32, ptr %6, align 4
  %13 = getelementptr inbounds nuw %"class.clang::ASTNodeKind", ptr %5, i32 0, i32 0
  %14 = load i32, ptr %13, align 4
  %15 = call noundef zeroext i1 @_ZN5clang11ASTNodeKind8isBaseOfENS0_10NodeKindIdES1_(i32 noundef %12, i32 noundef %14)
  br i1 %15, label %19, label %16

16:                                               ; preds = %11
  %17 = load i32, ptr %6, align 4
  %18 = icmp ne i32 %17, 0
  br label %19

19:                                               ; preds = %16, %11
  %20 = phi i1 [ false, %11 ], [ %18, %16 ]
  br i1 %20, label %21, label %27

21:                                               ; preds = %19
  %22 = load i32, ptr %6, align 4
  %23 = zext i32 %22 to i64
  %24 = getelementptr inbounds [1018 x %"struct.clang::ASTNodeKind::KindInfo"], ptr @_ZN5clang11ASTNodeKind11AllKindInfoE, i64 0, i64 %23
  %25 = getelementptr inbounds nuw %"struct.clang::ASTNodeKind::KindInfo", ptr %24, i32 0, i32 0
  %26 = load i32, ptr %25, align 16
  store i32 %26, ptr %6, align 4
  br label %11, !llvm.loop !8

27:                                               ; preds = %19
  %28 = load i32, ptr %6, align 4
  call void @_ZN5clang11ASTNodeKindC2ENS0_10NodeKindIdE(ptr noundef nonnull align 4 dereferenceable(4) %3, i32 noundef %28)
  %29 = getelementptr inbounds nuw %"class.clang::ASTNodeKind", ptr %3, i32 0, i32 0
  %30 = load i32, ptr %29, align 4
  ret i32 %30
}