; Function Attrs: mustprogress nofree norecurse nosync nounwind willreturn memory(none) uwtable
define dso_local i32 @_ZN5clang11ASTNodeKind28getMostDerivedCommonAncestorES0_S0_(i32 %0, i32 %1) local_unnamed_addr #1 align 2 {
  %.fr9 = freeze i32 %1
  %3 = icmp eq i32 %.fr9, 0
  %4 = icmp eq i32 %0, 0
  %brmerge = select i1 %3, i1 true, i1 %4
  br i1 %brmerge, label %.split7.us, label %.preheader.i

.preheader.i:                                     ; preds = %2, %.split
  %.016 = phi i32 [ %14, %.split ], [ %0, %2 ]
  %.not.i = icmp eq i32 %.fr9, %.016
  br i1 %.not.i, label %_ZN5clang11ASTNodeKind8isBaseOfENS0_10NodeKindIdES1_.exit, label %.lr.ph.i

.lr.ph.i:                                         ; preds = %.preheader.i, %.lr.ph.i
  %.011.i = phi i32 [ %7, %.lr.ph.i ], [ %.fr9, %.preheader.i ]
  %5 = zext i32 %.011.i to i64
  %6 = getelementptr inbounds [1018 x %"struct.clang::ASTNodeKind::KindInfo"], ptr @_ZN5clang11ASTNodeKind11AllKindInfoE, i64 0, i64 %5
  %7 = load i32, ptr %6, align 16
  %8 = icmp ne i32 %7, %.016
  %9 = icmp ne i32 %7, 0
  %10 = and i1 %8, %9
  br i1 %10, label %.lr.ph.i, label %_ZN5clang11ASTNodeKind8isBaseOfENS0_10NodeKindIdES1_.exit, !llvm.loop !4

_ZN5clang11ASTNodeKind8isBaseOfENS0_10NodeKindIdES1_.exit: ; preds = %.lr.ph.i, %.preheader.i
  %.0.lcssa.i = phi i32 [ %.fr9, %.preheader.i ], [ %7, %.lr.ph.i ]
  %11 = icmp eq i32 %.0.lcssa.i, %.016
  br i1 %11, label %.split7.us, label %.split

.split:                                           ; preds = %_ZN5clang11ASTNodeKind8isBaseOfENS0_10NodeKindIdES1_.exit
  %12 = zext i32 %.016 to i64
  %13 = getelementptr inbounds [1018 x %"struct.clang::ASTNodeKind::KindInfo"], ptr @_ZN5clang11ASTNodeKind11AllKindInfoE, i64 0, i64 %12
  %14 = load i32, ptr %13, align 16
  %15 = icmp eq i32 %14, 0
  br i1 %15, label %.split7.us, label %.preheader.i, !llvm.loop !8

.split7.us:                                       ; preds = %_ZN5clang11ASTNodeKind8isBaseOfENS0_10NodeKindIdES1_.exit, %.split, %2
  %.us-phi = phi i32 [ 0, %2 ], [ 0, %.split ], [ %.016, %_ZN5clang11ASTNodeKind8isBaseOfENS0_10NodeKindIdES1_.exit ]
  ret i32 %.us-phi
}